target datalayout = "e-m:e-p270:32:32-p271:32:32-p272:64:64-i64:64-i128:128-f80:128-n8:16:32:64-S128"
target triple = "x86_64-pc-linux-gnu"

%struct.anon = type { ptr, ptr, i32, i64, i64, i64, i64, i32, i32, [1024 x i8] }
%struct._rio = type { ptr, ptr, ptr, ptr, ptr, i64, i64, i64, i64, %union.anon }
%union.anon = type { %struct.anon.2 }
%struct.anon.2 = type { ptr, i64, ptr, i64, i64 }
%struct.__va_list_tag = type { i32, i32, ptr, ptr }
%struct.redisObject = type { i32, i32, ptr }

@rdb_check_doing_string = dso_local global [10 x ptr] [ptr @.str, ptr @.str.1, ptr @.str.2, ptr @.str.3, ptr @.str.4, ptr @.str.5, ptr @.str.6, ptr @.str.7, ptr @.str.8, ptr @.str.9], align 16
@.str.36 = private unnamed_addr constant [22 x i8] c"[info] %lu keys read\0A\00", align 1
@rdbstate = dso_local global %struct.anon zeroinitializer, align 8
@.str.37 = private unnamed_addr constant [20 x i8] c"[info] %lu expires\0A\00", align 1
@.str.38 = private unnamed_addr constant [28 x i8] c"[info] %lu already expired\0A\00", align 1
@.str.39 = private unnamed_addr constant [23 x i8] c"[info] %lu subexpires\0A\00", align 1
@.str.40 = private unnamed_addr constant [28 x i8] c"--- RDB ERROR DETECTED ---\0A\00", align 1
@.str.41 = private unnamed_addr constant [18 x i8] c"[offset %llu] %s\0A\00", align 1
@.str.42 = private unnamed_addr constant [35 x i8] c"[additional info] While doing: %s\0A\00", align 1
@.str.43 = private unnamed_addr constant [36 x i8] c"[additional info] Reading key '%s'\0A\00", align 1
@.str.44 = private unnamed_addr constant [40 x i8] c"[additional info] Reading type %d (%s)\0A\00", align 1
@.str.45 = private unnamed_addr constant [8 x i8] c"unknown\00", align 1

; Function Attrs: nounwind uwtable
define dso_local void @rdbShowGenericInfo() #0 {
  %1 = load i64, ptr getelementptr inbounds nuw (%struct.anon, ptr @rdbstate, i32 0, i32 3), align 8, !tbaa !5
  %2 = call i32 (ptr, ...) @printf(ptr noundef @.str.36, i64 noundef %1)
  %3 = load i64, ptr getelementptr inbounds nuw (%struct.anon, ptr @rdbstate, i32 0, i32 4), align 8, !tbaa !14
  %4 = call i32 (ptr, ...) @printf(ptr noundef @.str.37, i64 noundef %3)
  %5 = load i64, ptr getelementptr inbounds nuw (%struct.anon, ptr @rdbstate, i32 0, i32 5), align 8, !tbaa !15
  %6 = call i32 (ptr, ...) @printf(ptr noundef @.str.38, i64 noundef %5)
  %7 = load i64, ptr getelementptr inbounds nuw (%struct.anon, ptr @rdbstate, i32 0, i32 6), align 8, !tbaa !16
  %8 = call i32 (ptr, ...) @printf(ptr noundef @.str.39, i64 noundef %7)
  ret void
}

; Function Attrs: nounwind uwtable
define dso_local void @rdbCheckError(ptr noundef %0, ...) #0 {
  %2 = alloca ptr, align 8
  %3 = alloca [1024 x i8], align 16
  %4 = alloca [1 x %struct.__va_list_tag], align 16
  store ptr %0, ptr %2, align 8, !tbaa !17
  call void @llvm.lifetime.start.p0(i64 1024, ptr %3) #9
  call void @llvm.lifetime.start.p0(i64 24, ptr %4) #9
  %5 = getelementptr inbounds [1 x %struct.__va_list_tag], ptr %4, i64 0, i64 0
  call void @llvm.va_start.p0(ptr %5)
  %6 = getelementptr inbounds [1024 x i8], ptr %3, i64 0, i64 0
  %7 = load ptr, ptr %2, align 8, !tbaa !17
  %8 = getelementptr inbounds [1 x %struct.__va_list_tag], ptr %4, i64 0, i64 0
  %9 = call i32 @vsnprintf(ptr noundef %6, i64 noundef 1024, ptr noundef %7, ptr noundef %8) #9
  %10 = getelementptr inbounds [1 x %struct.__va_list_tag], ptr %4, i64 0, i64 0
  call void @llvm.va_end.p0(ptr %10)
  %11 = call i32 (ptr, ...) @printf(ptr noundef @.str.40)
  %12 = load ptr, ptr @rdbstate, align 8, !tbaa !19
  %13 = icmp ne ptr %12, null
  br i1 %13, label %14, label %18

14:                                               ; preds = %1
  %15 = load ptr, ptr @rdbstate, align 8, !tbaa !19
  %16 = getelementptr inbounds nuw %struct._rio, ptr %15, i32 0, i32 7
  %17 = load i64, ptr %16, align 8, !tbaa !20
  br label %19

18:                                               ; preds = %1
  br label %19

19:                                               ; preds = %18, %14
  %20 = phi i64 [ %17, %14 ], [ 0, %18 ]
  %21 = getelementptr inbounds [1024 x i8], ptr %3, i64 0, i64 0
  %22 = call i32 (ptr, ...) @printf(ptr noundef @.str.41, i64 noundef %20, ptr noundef %21)
  %23 = load i32, ptr getelementptr inbounds nuw (%struct.anon, ptr @rdbstate, i32 0, i32 7), align 8, !tbaa !22
  %24 = sext i32 %23 to i64
  %25 = getelementptr inbounds [10 x ptr], ptr @rdb_check_doing_string, i64 0, i64 %24
  %26 = load ptr, ptr %25, align 8, !tbaa !17
  %27 = call i32 (ptr, ...) @printf(ptr noundef @.str.42, ptr noundef %26)
  %28 = load ptr, ptr getelementptr inbounds nuw (%struct.anon, ptr @rdbstate, i32 0, i32 1), align 8, !tbaa !23
  %29 = icmp ne ptr %28, null
  br i1 %29, label %30, label %35

30:                                               ; preds = %19
  %31 = load ptr, ptr getelementptr inbounds nuw (%struct.anon, ptr @rdbstate, i32 0, i32 1), align 8, !tbaa !23
  %32 = getelementptr inbounds nuw %struct.redisObject, ptr %31, i32 0, i32 2
  %33 = load ptr, ptr %32, align 8, !tbaa !24
  %34 = call i32 (ptr, ...) @printf(ptr noundef @.str.43, ptr noundef %33)
  br label %35

35:                                               ; preds = %30, %19
  %36 = load i32, ptr getelementptr inbounds nuw (%struct.anon, ptr @rdbstate, i32 0, i32 2), align 8, !tbaa !26
  %37 = icmp ne i32 %36, -1
  br i1 %37, label %38, label %52

38:                                               ; preds = %35
  %39 = load i32, ptr getelementptr inbounds nuw (%struct.anon, ptr @rdbstate, i32 0, i32 2), align 8, !tbaa !26
  %40 = load i32, ptr getelementptr inbounds nuw (%struct.anon, ptr @rdbstate, i32 0, i32 2), align 8, !tbaa !26
  %41 = zext i32 %40 to i64
  %42 = icmp ult i64 %41, 26
  br i1 %42, label %43, label %48

43:                                               ; preds = %38
  %44 = load i32, ptr getelementptr inbounds nuw (%struct.anon, ptr @rdbstate, i32 0, i32 2), align 8, !tbaa !26
  %45 = sext i32 %44 to i64
  %46 = getelementptr inbounds [26 x ptr], ptr @rdb_type_string, i64 0, i64 %45
  %47 = load ptr, ptr %46, align 8, !tbaa !17
  br label %49

48:                                               ; preds = %38
  br label %49

49:                                               ; preds = %48, %43
  %50 = phi ptr [ %47, %43 ], [ @.str.45, %48 ]
  %51 = call i32 (ptr, ...) @printf(ptr noundef @.str.44, i32 noundef %39, ptr noundef %50)
  br label %52

52:                                               ; preds = %49, %35
  call void @rdbShowGenericInfo()
  call void @llvm.lifetime.end.p0(i64 24, ptr %4) #9
  call void @llvm.lifetime.end.p0(i64 1024, ptr %3) #9
  ret void
}