; Function Attrs: nofree nounwind uwtable
define dso_local void @rdbCheckError(ptr noundef readonly captures(none) %0, ...) local_unnamed_addr #0 {
  %2 = alloca [1024 x i8], align 16
  %3 = alloca [1 x %struct.__va_list_tag], align 16
  call void @llvm.lifetime.start.p0(i64 1024, ptr nonnull %2) #15
  call void @llvm.lifetime.start.p0(i64 24, ptr nonnull %3) #15
  call void @llvm.va_start.p0(ptr nonnull %3)
  %4 = call i32 @vsnprintf(ptr noundef nonnull %2, i64 noundef 1024, ptr noundef %0, ptr noundef nonnull %3) #15
  call void @llvm.va_end.p0(ptr nonnull %3)
  %puts = call i32 @puts(ptr nonnull dereferenceable(1) @str)
  %5 = load ptr, ptr @rdbstate, align 8, !tbaa !17
  %.not = icmp eq ptr %5, null
  br i1 %.not, label %9, label %6

6:                                                ; preds = %1
  %7 = getelementptr inbounds nuw i8, ptr %5, i64 56
  %8 = load i64, ptr %7, align 8, !tbaa !18
  br label %9

9:                                                ; preds = %1, %6
  %10 = phi i64 [ %8, %6 ], [ 0, %1 ]
  %11 = call i32 (ptr, ...) @printf(ptr noundef nonnull dereferenceable(1) @.str.41, i64 noundef %10, ptr noundef nonnull %2)
  %12 = load i32, ptr getelementptr inbounds nuw (i8, ptr @rdbstate, i64 56), align 8, !tbaa !20
  %13 = sext i32 %12 to i64
  %14 = getelementptr inbounds [10 x ptr], ptr @rdb_check_doing_string, i64 0, i64 %13
  %15 = load ptr, ptr %14, align 8, !tbaa !21
  %16 = call i32 (ptr, ...) @printf(ptr noundef nonnull dereferenceable(1) @.str.42, ptr noundef %15)
  %17 = load ptr, ptr getelementptr inbounds nuw (i8, ptr @rdbstate, i64 8), align 8, !tbaa !23
  %.not3 = icmp eq ptr %17, null
  br i1 %.not3, label %22, label %18

18:                                               ; preds = %9
  %19 = getelementptr inbounds nuw i8, ptr %17, i64 8
  %20 = load ptr, ptr %19, align 8, !tbaa !24
  %21 = call i32 (ptr, ...) @printf(ptr noundef nonnull dereferenceable(1) @.str.43, ptr noundef %20)
  br label %22

22:                                               ; preds = %18, %9
  %23 = load i32, ptr getelementptr inbounds nuw (i8, ptr @rdbstate, i64 16), align 8, !tbaa !26
  %.not4 = icmp eq i32 %23, -1
  br i1 %.not4, label %33, label %24

24:                                               ; preds = %22
  %25 = icmp ult i32 %23, 26
  br i1 %25, label %26, label %30

26:                                               ; preds = %24
  %27 = zext nneg i32 %23 to i64
  %28 = getelementptr inbounds nuw [26 x ptr], ptr @rdb_type_string, i64 0, i64 %27
  %29 = load ptr, ptr %28, align 8, !tbaa !21
  br label %30

30:                                               ; preds = %24, %26
  %31 = phi ptr [ %29, %26 ], [ @.str.45, %24 ]
  %32 = call i32 (ptr, ...) @printf(ptr noundef nonnull dereferenceable(1) @.str.44, i32 noundef %23, ptr noundef %31)
  br label %33

33:                                               ; preds = %30, %22
  %34 = load i64, ptr getelementptr inbounds nuw (i8, ptr @rdbstate, i64 24), align 8, !tbaa !5
  %35 = call i32 (ptr, ...) @printf(ptr noundef nonnull dereferenceable(1) @.str.36, i64 noundef %34)
  %36 = load i64, ptr getelementptr inbounds nuw (i8, ptr @rdbstate, i64 32), align 8, !tbaa !14
  %37 = call i32 (ptr, ...) @printf(ptr noundef nonnull dereferenceable(1) @.str.37, i64 noundef %36)
  %38 = load i64, ptr getelementptr inbounds nuw (i8, ptr @rdbstate, i64 40), align 8, !tbaa !15
  %39 = call i32 (ptr, ...) @printf(ptr noundef nonnull dereferenceable(1) @.str.38, i64 noundef %38)
  %40 = load i64, ptr getelementptr inbounds nuw (i8, ptr @rdbstate, i64 48), align 8, !tbaa !16
  %41 = call i32 (ptr, ...) @printf(ptr noundef nonnull dereferenceable(1) @.str.39, i64 noundef %40)
  call void @llvm.lifetime.end.p0(i64 24, ptr nonnull %3) #15
  call void @llvm.lifetime.end.p0(i64 1024, ptr nonnull %2) #15
  ret void
}